target datalayout = "e-m:e-p270:32:32-p271:32:32-p272:64:64-i64:64-i128:128-f80:128-n8:16:32:64-S128"
target triple = "x86_64-pc-linux-gnu"

%struct.TupleTableSlot = type { i32, i16, i16, ptr, ptr, ptr, ptr, ptr, %struct.ItemPointerData, i32 }
%struct.ItemPointerData = type { %struct.BlockIdData, i16 }
%struct.BlockIdData = type { i16, i16 }
%struct.HeapTupleTableSlot = type { %struct.TupleTableSlot, ptr, i32, %struct.HeapTupleData }
%struct.HeapTupleData = type { i32, %struct.ItemPointerData, i32, ptr }
%struct.BufferHeapTupleTableSlot = type { %struct.HeapTupleTableSlot, i32 }

; Function Attrs: inlinehint nounwind uwtable
define internal void @BlockIdSet(ptr noundef %0, i32 noundef %1) #4 {
  %3 = alloca ptr, align 8
  %4 = alloca i32, align 4
  store ptr %0, ptr %3, align 8
  store i32 %1, ptr %4, align 4
  %5 = load i32, ptr %4, align 4
  %6 = lshr i32 %5, 16
  %7 = trunc i32 %6 to i16
  %8 = load ptr, ptr %3, align 8
  %9 = getelementptr inbounds nuw %struct.BlockIdData, ptr %8, i32 0, i32 0
  store i16 %7, ptr %9, align 2
  %10 = load i32, ptr %4, align 4
  %11 = and i32 %10, 65535
  %12 = trunc i32 %11 to i16
  %13 = load ptr, ptr %3, align 8
  %14 = getelementptr inbounds nuw %struct.BlockIdData, ptr %13, i32 0, i32 1
  store i16 %12, ptr %14, align 2
  ret void
}

; Function Attrs: inlinehint nounwind uwtable
define internal void @ItemPointerSetInvalid(ptr noundef %0) #4 {
  %2 = alloca ptr, align 8
  store ptr %0, ptr %2, align 8
  %3 = load ptr, ptr %2, align 8
  %4 = getelementptr inbounds nuw %struct.ItemPointerData, ptr %3, i32 0, i32 0
  call void @BlockIdSet(ptr noundef %4, i32 noundef -1)
  %5 = load ptr, ptr %2, align 8
  %6 = getelementptr inbounds nuw %struct.ItemPointerData, ptr %5, i32 0, i32 1
  store i16 0, ptr %6, align 2
  ret void
}

; Function Attrs: inlinehint nounwind uwtable
define internal zeroext i1 @BufferIsValid(i32 noundef %0) #4 {
  %2 = alloca i32, align 4
  store i32 %0, ptr %2, align 4
  %3 = load i32, ptr %2, align 4
  %4 = icmp ne i32 %3, 0
  ret i1 %4
}

; Function Attrs: nounwind uwtable
define internal void @tts_buffer_heap_clear(ptr noundef %0) #0 {
  %2 = alloca ptr, align 8
  %3 = alloca ptr, align 8
  store ptr %0, ptr %2, align 8
  call void @llvm.lifetime.start.p0(i64 8, ptr %3) #10
  %4 = load ptr, ptr %2, align 8
  store ptr %4, ptr %3, align 8
  %5 = load ptr, ptr %2, align 8
  %6 = getelementptr inbounds nuw %struct.TupleTableSlot, ptr %5, i32 0, i32 1
  %7 = load i16, ptr %6, align 4
  %8 = zext i16 %7 to i32
  %9 = and i32 %8, 4
  %10 = icmp ne i32 %9, 0
  br i1 %10, label %11, label %22

11:                                               ; preds = %1
  %12 = load ptr, ptr %3, align 8
  %13 = getelementptr inbounds nuw %struct.BufferHeapTupleTableSlot, ptr %12, i32 0, i32 0
  %14 = getelementptr inbounds nuw %struct.HeapTupleTableSlot, ptr %13, i32 0, i32 1
  %15 = load ptr, ptr %14, align 8
  call void @heap_freetuple(ptr noundef %15)
  %16 = load ptr, ptr %2, align 8
  %17 = getelementptr inbounds nuw %struct.TupleTableSlot, ptr %16, i32 0, i32 1
  %18 = load i16, ptr %17, align 4
  %19 = zext i16 %18 to i32
  %20 = and i32 %19, -5
  %21 = trunc i32 %20 to i16
  store i16 %21, ptr %17, align 4
  br label %22

22:                                               ; preds = %11, %1
  %23 = load ptr, ptr %3, align 8
  %24 = getelementptr inbounds nuw %struct.BufferHeapTupleTableSlot, ptr %23, i32 0, i32 1
  %25 = load i32, ptr %24, align 8
  %26 = call zeroext i1 @BufferIsValid(i32 noundef %25)
  br i1 %26, label %27, label %31

27:                                               ; preds = %22
  %28 = load ptr, ptr %3, align 8
  %29 = getelementptr inbounds nuw %struct.BufferHeapTupleTableSlot, ptr %28, i32 0, i32 1
  %30 = load i32, ptr %29, align 8
  call void @ReleaseBuffer(i32 noundef %30)
  br label %31

31:                                               ; preds = %27, %22
  %32 = load ptr, ptr %2, align 8
  %33 = getelementptr inbounds nuw %struct.TupleTableSlot, ptr %32, i32 0, i32 2
  store i16 0, ptr %33, align 2
  %34 = load ptr, ptr %2, align 8
  %35 = getelementptr inbounds nuw %struct.TupleTableSlot, ptr %34, i32 0, i32 1
  %36 = load i16, ptr %35, align 4
  %37 = zext i16 %36 to i32
  %38 = or i32 %37, 2
  %39 = trunc i32 %38 to i16
  store i16 %39, ptr %35, align 4
  %40 = load ptr, ptr %2, align 8
  %41 = getelementptr inbounds nuw %struct.TupleTableSlot, ptr %40, i32 0, i32 8
  call void @ItemPointerSetInvalid(ptr noundef %41)
  %42 = load ptr, ptr %3, align 8
  %43 = getelementptr inbounds nuw %struct.BufferHeapTupleTableSlot, ptr %42, i32 0, i32 0
  %44 = getelementptr inbounds nuw %struct.HeapTupleTableSlot, ptr %43, i32 0, i32 1
  store ptr null, ptr %44, align 8
  %45 = load ptr, ptr %3, align 8
  %46 = getelementptr inbounds nuw %struct.BufferHeapTupleTableSlot, ptr %45, i32 0, i32 0
  %47 = getelementptr inbounds nuw %struct.HeapTupleTableSlot, ptr %46, i32 0, i32 2
  store i32 0, ptr %47, align 8
  %48 = load ptr, ptr %3, align 8
  %49 = getelementptr inbounds nuw %struct.BufferHeapTupleTableSlot, ptr %48, i32 0, i32 1
  store i32 0, ptr %49, align 8
  call void @llvm.lifetime.end.p0(i64 8, ptr %3) #10
  ret void
}