; Function Attrs: nounwind uwtable
define internal void @tts_buffer_heap_clear(ptr noundef captures(none) initializes((6, 8), (48, 54), (72, 76)) %0) #1 {
  %2 = getelementptr inbounds nuw i8, ptr %0, i64 4
  %3 = load i16, ptr %2, align 4
  %4 = and i16 %3, 4
  %.not = icmp eq i16 %4, 0
  br i1 %.not, label %10, label %5

5:                                                ; preds = %1
  %6 = getelementptr inbounds nuw i8, ptr %0, i64 64
  %7 = load ptr, ptr %6, align 8
  tail call void @heap_freetuple(ptr noundef %7) #14
  %8 = load i16, ptr %2, align 4
  %9 = and i16 %8, -5
  store i16 %9, ptr %2, align 4
  br label %10

10:                                               ; preds = %5, %1
  %11 = phi i16 [ %9, %5 ], [ %3, %1 ]
  %12 = getelementptr inbounds nuw i8, ptr %0, i64 104
  %13 = load i32, ptr %12, align 8
  %.not12 = icmp eq i32 %13, 0
  br i1 %.not12, label %15, label %14

14:                                               ; preds = %10
  tail call void @ReleaseBuffer(i32 noundef %13) #14
  %.pre = load i16, ptr %2, align 4
  br label %15

15:                                               ; preds = %14, %10
  %16 = phi i16 [ %.pre, %14 ], [ %11, %10 ]
  %17 = getelementptr inbounds nuw i8, ptr %0, i64 6
  store i16 0, ptr %17, align 2
  %18 = or i16 %16, 2
  store i16 %18, ptr %2, align 4
  %19 = getelementptr inbounds nuw i8, ptr %0, i64 48
  store i16 -1, ptr %19, align 2
  %20 = getelementptr inbounds nuw i8, ptr %0, i64 50
  store i16 -1, ptr %20, align 2
  %21 = getelementptr inbounds nuw i8, ptr %0, i64 52
  store i16 0, ptr %21, align 2
  %22 = getelementptr inbounds nuw i8, ptr %0, i64 64
  store ptr null, ptr %22, align 8
  %23 = getelementptr inbounds nuw i8, ptr %0, i64 72
  store i32 0, ptr %23, align 8
  store i32 0, ptr %12, align 8
  ret void
}